target datalayout = "e-m:e-p270:32:32-p271:32:32-p272:64:64-i64:64-i128:128-f80:128-n8:16:32:64-S128"
target triple = "x86_64-pc-linux-gnu"

%struct.lzma_next_coder_s = type { ptr, i64, i64, ptr, ptr, ptr, ptr, ptr, ptr, ptr }
%struct.lzma_auto_coder = type { %struct.lzma_next_coder_s, i64, i32, i32 }

; Function Attrs: nounwind uwtable
define internal i32 @auto_decoder_init(ptr noundef %0, ptr noundef %1, i64 noundef %2, i32 noundef %3) #0 {
  %5 = alloca i32, align 4
  %6 = alloca ptr, align 8
  %7 = alloca ptr, align 8
  %8 = alloca i64, align 8
  %9 = alloca i32, align 4
  %10 = alloca ptr, align 8
  %11 = alloca i32, align 4
  %12 = alloca %struct.lzma_next_coder_s, align 8
  store ptr %0, ptr %6, align 8, !tbaa !19
  store ptr %1, ptr %7, align 8, !tbaa !4
  store i64 %2, ptr %8, align 8, !tbaa !8
  store i32 %3, ptr %9, align 4, !tbaa !10
  br label %13

13:                                               ; preds = %4
  %14 = load ptr, ptr %6, align 8, !tbaa !19
  %15 = getelementptr inbounds nuw %struct.lzma_next_coder_s, ptr %14, i32 0, i32 2
  %16 = load i64, ptr %15, align 8, !tbaa !21
  %17 = icmp ne i64 ptrtoint (ptr @auto_decoder_init to i64), %16
  br i1 %17, label %18, label %21

18:                                               ; preds = %13
  %19 = load ptr, ptr %6, align 8, !tbaa !19
  %20 = load ptr, ptr %7, align 8, !tbaa !4
  call void @lzma_next_end(ptr noundef %19, ptr noundef %20)
  br label %21

21:                                               ; preds = %18, %13
  %22 = load ptr, ptr %6, align 8, !tbaa !19
  %23 = getelementptr inbounds nuw %struct.lzma_next_coder_s, ptr %22, i32 0, i32 2
  store i64 ptrtoint (ptr @auto_decoder_init to i64), ptr %23, align 8, !tbaa !21
  br label %24

24:                                               ; preds = %21
  %25 = load i32, ptr %9, align 4, !tbaa !10
  %26 = and i32 %25, -64
  %27 = icmp ne i32 %26, 0
  br i1 %27, label %28, label %29

28:                                               ; preds = %24
  store i32 8, ptr %5, align 4
  br label %72

29:                                               ; preds = %24
  call void @llvm.lifetime.start.p0(i64 8, ptr %10) #6
  %30 = load ptr, ptr %6, align 8, !tbaa !19
  %31 = getelementptr inbounds nuw %struct.lzma_next_coder_s, ptr %30, i32 0, i32 0
  %32 = load ptr, ptr %31, align 8, !tbaa !23
  store ptr %32, ptr %10, align 8, !tbaa !4
  %33 = load ptr, ptr %10, align 8, !tbaa !4
  %34 = icmp eq ptr %33, null
  br i1 %34, label %35, label %56

35:                                               ; preds = %29
  %36 = load ptr, ptr %7, align 8, !tbaa !4
  %37 = call ptr @lzma_alloc(i64 noundef 96, ptr noundef %36)
  store ptr %37, ptr %10, align 8, !tbaa !4
  %38 = load ptr, ptr %10, align 8, !tbaa !4
  %39 = icmp eq ptr %38, null
  br i1 %39, label %40, label %41

40:                                               ; preds = %35
  store i32 5, ptr %5, align 4
  store i32 1, ptr %11, align 4
  br label %71

41:                                               ; preds = %35
  %42 = load ptr, ptr %10, align 8, !tbaa !4
  %43 = load ptr, ptr %6, align 8, !tbaa !19
  %44 = getelementptr inbounds nuw %struct.lzma_next_coder_s, ptr %43, i32 0, i32 0
  store ptr %42, ptr %44, align 8, !tbaa !23
  %45 = load ptr, ptr %6, align 8, !tbaa !19
  %46 = getelementptr inbounds nuw %struct.lzma_next_coder_s, ptr %45, i32 0, i32 3
  store ptr @auto_decode, ptr %46, align 8, !tbaa !24
  %47 = load ptr, ptr %6, align 8, !tbaa !19
  %48 = getelementptr inbounds nuw %struct.lzma_next_coder_s, ptr %47, i32 0, i32 4
  store ptr @auto_decoder_end, ptr %48, align 8, !tbaa !25
  %49 = load ptr, ptr %6, align 8, !tbaa !19
  %50 = getelementptr inbounds nuw %struct.lzma_next_coder_s, ptr %49, i32 0, i32 6
  store ptr @auto_decoder_get_check, ptr %50, align 8, !tbaa !26
  %51 = load ptr, ptr %6, align 8, !tbaa !19
  %52 = getelementptr inbounds nuw %struct.lzma_next_coder_s, ptr %51, i32 0, i32 7
  store ptr @auto_decoder_memconfig, ptr %52, align 8, !tbaa !27
  %53 = load ptr, ptr %10, align 8, !tbaa !4
  %54 = getelementptr inbounds nuw %struct.lzma_auto_coder, ptr %53, i32 0, i32 0
  call void @llvm.memset.p0.i64(ptr align 8 %12, i8 0, i64 80, i1 false)
  %55 = getelementptr inbounds nuw %struct.lzma_next_coder_s, ptr %12, i32 0, i32 1
  store i64 -1, ptr %55, align 8, !tbaa !28
  call void @llvm.memcpy.p0.p0.i64(ptr align 8 %54, ptr align 8 %12, i64 80, i1 false), !tbaa.struct !29
  br label %56

56:                                               ; preds = %41, %29
  %57 = load i64, ptr %8, align 8, !tbaa !8
  %58 = icmp ugt i64 1, %57
  br i1 %58, label %59, label %60

59:                                               ; preds = %56
  br label %62

60:                                               ; preds = %56
  %61 = load i64, ptr %8, align 8, !tbaa !8
  br label %62

62:                                               ; preds = %60, %59
  %63 = phi i64 [ 1, %59 ], [ %61, %60 ]
  %64 = load ptr, ptr %10, align 8, !tbaa !4
  %65 = getelementptr inbounds nuw %struct.lzma_auto_coder, ptr %64, i32 0, i32 1
  store i64 %63, ptr %65, align 8, !tbaa !30
  %66 = load i32, ptr %9, align 4, !tbaa !10
  %67 = load ptr, ptr %10, align 8, !tbaa !4
  %68 = getelementptr inbounds nuw %struct.lzma_auto_coder, ptr %67, i32 0, i32 2
  store i32 %66, ptr %68, align 8, !tbaa !32
  %69 = load ptr, ptr %10, align 8, !tbaa !4
  %70 = getelementptr inbounds nuw %struct.lzma_auto_coder, ptr %69, i32 0, i32 3
  store i32 0, ptr %70, align 4, !tbaa !33
  store i32 0, ptr %5, align 4
  store i32 1, ptr %11, align 4
  br label %71

71:                                               ; preds = %62, %40
  call void @llvm.lifetime.end.p0(i64 8, ptr %10) #6
  br label %72

72:                                               ; preds = %71, %28
  %73 = load i32, ptr %5, align 4
  ret i32 %73
}