; Function Attrs: nounwind uwtable
define internal range(i32 0, 9) i32 @auto_decoder_init(ptr noundef %0, ptr noundef %1, i64 noundef %2, i32 noundef %3) #0 {
  %5 = getelementptr inbounds nuw i8, ptr %0, i64 16
  %6 = load i64, ptr %5, align 8, !tbaa !14
  %.not = icmp eq i64 %6, ptrtoint (ptr @auto_decoder_init to i64)
  br i1 %.not, label %8, label %7

7:                                                ; preds = %4
  tail call void @lzma_next_end(ptr noundef nonnull %0, ptr noundef %1) #5
  br label %8

8:                                                ; preds = %7, %4
  store i64 ptrtoint (ptr @auto_decoder_init to i64), ptr %5, align 8, !tbaa !14
  %.not25 = icmp ult i32 %3, 64
  br i1 %.not25, label %9, label %25

9:                                                ; preds = %8
  %10 = load ptr, ptr %0, align 8, !tbaa !16
  %11 = icmp eq ptr %10, null
  br i1 %11, label %12, label %20

12:                                               ; preds = %9
  %13 = tail call ptr @lzma_alloc(i64 noundef 96, ptr noundef %1) #5
  %14 = icmp eq ptr %13, null
  br i1 %14, label %25, label %15

15:                                               ; preds = %12
  store ptr %13, ptr %0, align 8, !tbaa !16
  %16 = getelementptr inbounds nuw i8, ptr %0, i64 24
  store ptr @auto_decode, ptr %16, align 8, !tbaa !17
  %17 = getelementptr inbounds nuw i8, ptr %0, i64 32
  store ptr @auto_decoder_end, ptr %17, align 8, !tbaa !18
  %18 = getelementptr inbounds nuw i8, ptr %0, i64 48
  store ptr @auto_decoder_get_check, ptr %18, align 8, !tbaa !19
  %19 = getelementptr inbounds nuw i8, ptr %0, i64 56
  store ptr @auto_decoder_memconfig, ptr %19, align 8, !tbaa !20
  store ptr null, ptr %13, align 8, !tbaa !21
  %.sroa.2.0..sroa_idx = getelementptr inbounds nuw i8, ptr %13, i64 8
  store i64 -1, ptr %.sroa.2.0..sroa_idx, align 8, !tbaa !22
  %.sroa.3.0..sroa_idx = getelementptr inbounds nuw i8, ptr %13, i64 16
  tail call void @llvm.memset.p0.i64(ptr noundef nonnull align 8 dereferenceable(64) %.sroa.3.0..sroa_idx, i8 0, i64 64, i1 false)
  br label %20

20:                                               ; preds = %15, %9
  %.022 = phi ptr [ %13, %15 ], [ %10, %9 ]
  %21 = tail call i64 @llvm.umax.i64(i64 %2, i64 1)
  %22 = getelementptr inbounds nuw i8, ptr %.022, i64 80
  store i64 %21, ptr %22, align 8, !tbaa !23
  %23 = getelementptr inbounds nuw i8, ptr %.022, i64 88
  store i32 %3, ptr %23, align 8, !tbaa !25
  %24 = getelementptr inbounds nuw i8, ptr %.022, i64 92
  store i32 0, ptr %24, align 4, !tbaa !26
  br label %25

25:                                               ; preds = %20, %12, %8
  %.0 = phi i32 [ 8, %8 ], [ 0, %20 ], [ 5, %12 ]
  ret i32 %.0
}